; Function Attrs: nounwind uwtable
define dso_local ptr @hashmap_get2(ptr noundef readonly captures(none) %0, ptr noundef readonly captures(none) %1, i32 noundef %2) local_unnamed_addr #0 {
  %4 = load ptr, ptr %0, align 8, !tbaa !7
  %.not.i = icmp eq ptr %4, null
  br i1 %.not.i, label %get_entry.exit.thread, label %5

5:                                                ; preds = %3
  %6 = icmp sgt i32 %2, 0
  br i1 %6, label %.lr.ph.preheader.i.i, label %fnv_hash.exit.i

.lr.ph.preheader.i.i:                             ; preds = %5
  %wide.trip.count.i.i = zext nneg i32 %2 to i64
  br label %.lr.ph.i.i

.lr.ph.i.i:                                       ; preds = %.lr.ph.i.i, %.lr.ph.preheader.i.i
  %indvars.iv.i.i = phi i64 [ 0, %.lr.ph.preheader.i.i ], [ %indvars.iv.next.i.i, %.lr.ph.i.i ]
  %.078.i.i = phi i64 [ -3750763034362895579, %.lr.ph.preheader.i.i ], [ %11, %.lr.ph.i.i ]
  %7 = mul i64 %.078.i.i, 1099511628211
  %8 = getelementptr inbounds nuw i8, ptr %1, i64 %indvars.iv.i.i
  %9 = load i8, ptr %8, align 1, !tbaa !13
  %10 = zext i8 %9 to i64
  %11 = xor i64 %7, %10
  %indvars.iv.next.i.i = add nuw nsw i64 %indvars.iv.i.i, 1
  %exitcond.not.i.i = icmp eq i64 %indvars.iv.next.i.i, %wide.trip.count.i.i
  br i1 %exitcond.not.i.i, label %fnv_hash.exit.i, label %.lr.ph.i.i, !llvm.loop !14

fnv_hash.exit.i:                                  ; preds = %.lr.ph.i.i, %5
  %.07.lcssa.i.i = phi i64 [ -3750763034362895579, %5 ], [ %11, %.lr.ph.i.i ]
  %12 = getelementptr inbounds nuw i8, ptr %0, i64 8
  %13 = load i32, ptr %12, align 8, !tbaa !16
  %.not2228.i = icmp sgt i32 %13, 0
  br i1 %.not2228.i, label %.lr.ph.i, label %._crit_edge.i

.lr.ph.i:                                         ; preds = %fnv_hash.exit.i
  %14 = zext nneg i32 %13 to i64
  %15 = sext i32 %2 to i64
  br label %17

16:                                               ; preds = %match.exit.thread.i, %17
  %indvars.iv.next.i = add nuw nsw i64 %indvars.iv.i, 1
  %exitcond.not.i = icmp eq i64 %indvars.iv.next.i, %14
  br i1 %exitcond.not.i, label %._crit_edge.i, label %17, !llvm.loop !17

17:                                               ; preds = %16, %.lr.ph.i
  %indvars.iv.i = phi i64 [ 0, %.lr.ph.i ], [ %indvars.iv.next.i, %16 ]
  %18 = add i64 %indvars.iv.i, %.07.lcssa.i.i
  %19 = urem i64 %18, %14
  %20 = getelementptr inbounds nuw %struct.HashEntry, ptr %4, i64 %19
  %21 = load ptr, ptr %20, align 8, !tbaa !18
  %magicptr.i = ptrtoint ptr %21 to i64
  switch i64 %magicptr.i, label %22 [
    i64 0, label %get_entry.exit.thread
    i64 -1, label %16
  ]

22:                                               ; preds = %17
  %23 = getelementptr inbounds nuw i8, ptr %20, i64 8
  %24 = load i32, ptr %23, align 8, !tbaa !21
  %25 = icmp eq i32 %24, %2
  br i1 %25, label %match.exit.i, label %match.exit.thread.i

match.exit.i:                                     ; preds = %22
  %bcmp.i.i = tail call i32 @bcmp(ptr nonnull %21, ptr readonly %1, i64 %15)
  %26 = icmp eq i32 %bcmp.i.i, 0
  br i1 %26, label %get_entry.exit, label %match.exit.thread.i

match.exit.thread.i:                              ; preds = %match.exit.i, %22
  %.not27.i = icmp eq ptr %21, null
  br i1 %.not27.i, label %get_entry.exit.thread, label %16

._crit_edge.i:                                    ; preds = %16, %fnv_hash.exit.i
  tail call void (ptr, ...) @error(ptr noundef nonnull @.str.2, ptr noundef nonnull @.str.3, i32 noundef 73) #10
  unreachable

get_entry.exit:                                   ; preds = %match.exit.i
  %27 = getelementptr inbounds nuw i8, ptr %20, i64 16
  %28 = load ptr, ptr %27, align 8, !tbaa !22
  br label %get_entry.exit.thread

get_entry.exit.thread:                            ; preds = %17, %match.exit.thread.i, %3, %get_entry.exit
  %29 = phi ptr [ %28, %get_entry.exit ], [ null, %3 ], [ null, %match.exit.thread.i ], [ null, %17 ]
  ret ptr %29
}